; Function Attrs: nofree norecurse nosync nounwind memory(argmem: readwrite) uwtable
define hidden void @aom_vertical_band_5_3_scale_c(ptr noundef readonly captures(none) %0, i32 noundef %1, ptr noundef writeonly %2, i32 noundef %3, i32 noundef %4) local_unnamed_addr #0 {
  %6 = zext i32 %4 to i64
  %7 = getelementptr inbounds nuw i8, ptr %2, i64 %6
  %.not = icmp eq i32 %4, 0
  br i1 %.not, label %._crit_edge, label %.lr.ph

.lr.ph:                                           ; preds = %5
  %8 = sext i32 %1 to i64
  %9 = shl nsw i32 %1, 1
  %10 = sext i32 %9 to i64
  %11 = mul nsw i32 %1, 3
  %12 = sext i32 %11 to i64
  %13 = shl nsw i32 %1, 2
  %14 = sext i32 %13 to i64
  %15 = sext i32 %3 to i64
  %16 = shl nsw i32 %3, 1
  %17 = sext i32 %16 to i64
  br label %18

18:                                               ; preds = %.lr.ph, %18
  %.028 = phi ptr [ %0, %.lr.ph ], [ %46, %18 ]
  %.02627 = phi ptr [ %2, %.lr.ph ], [ %47, %18 ]
  %19 = load i8, ptr %.028, align 1
  %20 = getelementptr inbounds i8, ptr %.028, i64 %8
  %21 = load i8, ptr %20, align 1
  %22 = zext i8 %21 to i32
  %23 = getelementptr inbounds i8, ptr %.028, i64 %10
  %24 = load i8, ptr %23, align 1
  %25 = zext i8 %24 to i32
  %26 = getelementptr inbounds i8, ptr %.028, i64 %12
  %27 = load i8, ptr %26, align 1
  %28 = zext i8 %27 to i32
  %29 = getelementptr inbounds i8, ptr %.028, i64 %14
  %30 = load i8, ptr %29, align 1
  %31 = zext i8 %30 to i32
  store i8 %19, ptr %.02627, align 1
  %32 = mul nuw nsw i32 %22, 85
  %33 = mul nuw nsw i32 %25, 171
  %34 = add nuw nsw i32 %32, 128
  %35 = add nuw nsw i32 %34, %33
  %36 = lshr i32 %35, 8
  %37 = trunc nuw i32 %36 to i8
  %38 = getelementptr inbounds i8, ptr %.02627, i64 %15
  store i8 %37, ptr %38, align 1
  %39 = mul nuw nsw i32 %28, 171
  %40 = mul nuw nsw i32 %31, 85
  %41 = add nuw nsw i32 %39, 128
  %42 = add nuw nsw i32 %41, %40
  %43 = lshr i32 %42, 8
  %44 = trunc nuw i32 %43 to i8
  %45 = getelementptr inbounds i8, ptr %.02627, i64 %17
  store i8 %44, ptr %45, align 1
  %46 = getelementptr inbounds nuw i8, ptr %.028, i64 1
  %47 = getelementptr inbounds nuw i8, ptr %.02627, i64 1
  %48 = icmp ult ptr %47, %7
  br i1 %48, label %18, label %._crit_edge, !llvm.loop !8

._crit_edge:                                      ; preds = %18, %5
  ret void
}